target datalayout = "e-m:e-p270:32:32-p271:32:32-p272:64:64-i64:64-i128:128-f80:128-n8:16:32:64-S128"
target triple = "x86_64-pc-linux-gnu"

%struct.sigperf_elem = type { ptr, i64, i64, i64 }
%union.ev_val = type { ptr }

@g_sigevents = global ptr null, align 8
@g_sigid = global i32 0, align 4
@.str.7 = private unnamed_addr constant [71 x i8] c"cli_sigperf_print: statistics requested but no bytecodes were loaded!\0A\00", align 1
@.str.8 = private unnamed_addr constant [27 x i8] c"No event triggered for %s\0A\00", align 1
@.str.9 = private unnamed_addr constant [9 x i8] c"\22noname\22\00", align 1
@.str.10 = private unnamed_addr constant [22 x i8] c"%-*s %*s %*s %*s %*s\0A\00", align 1
@.str.11 = private unnamed_addr constant [14 x i8] c"Bytecode name\00", align 1
@.str.12 = private unnamed_addr constant [6 x i8] c"#runs\00", align 1
@.str.13 = private unnamed_addr constant [9 x i8] c"#matches\00", align 1
@.str.14 = private unnamed_addr constant [12 x i8] c"usecs total\00", align 1
@.str.15 = private unnamed_addr constant [10 x i8] c"usecs avg\00", align 1
@.str.16 = private unnamed_addr constant [14 x i8] c"=============\00", align 1
@.str.17 = private unnamed_addr constant [6 x i8] c"=====\00", align 1
@.str.18 = private unnamed_addr constant [9 x i8] c"========\00", align 1
@.str.19 = private unnamed_addr constant [12 x i8] c"===========\00", align 1
@.str.20 = private unnamed_addr constant [10 x i8] c"=========\00", align 1
@.str.21 = private unnamed_addr constant [27 x i8] c"%-*s %*lu %*lu %*lu %*.2f\0A\00", align 1

; Function Attrs: nounwind uwtable
define void @cli_sigperf_print() #0 {
  %1 = alloca [64 x %struct.sigperf_elem], align 16
  %2 = alloca ptr, align 8
  %3 = alloca i32, align 4
  %4 = alloca i32, align 4
  %5 = alloca i32, align 4
  %6 = alloca i32, align 4
  %7 = alloca %union.ev_val, align 8
  %8 = alloca i32, align 4
  %9 = alloca ptr, align 8
  %10 = getelementptr inbounds [64 x %struct.sigperf_elem], ptr %1, i64 0, i64 0
  store ptr %10, ptr %2, align 8
  store i32 0, ptr %4, align 4
  store i32 0, ptr %5, align 4
  %11 = load i32, ptr @g_sigid, align 4
  %12 = icmp ne i32 %11, 0
  br i1 %12, label %13, label %16

13:                                               ; preds = %0
  %14 = load ptr, ptr @g_sigevents, align 8
  %15 = icmp ne ptr %14, null
  br i1 %15, label %17, label %16

16:                                               ; preds = %13, %0
  call void (ptr, ...) @cli_warnmsg(ptr noundef @.str.7)
  br label %125

17:                                               ; preds = %13
  %18 = getelementptr inbounds [64 x %struct.sigperf_elem], ptr %1, i64 0, i64 0
  call void @llvm.memset.p0.i64(ptr align 16 %18, i8 0, i64 2048, i1 false)
  store i32 0, ptr %3, align 4
  br label %19

19:                                               ; preds = %81, %17
  %20 = load i32, ptr %3, align 4
  %21 = icmp slt i32 %20, 64
  br i1 %21, label %22, label %84

22:                                               ; preds = %19
  %23 = load ptr, ptr @g_sigevents, align 8
  %24 = load i32, ptr %3, align 4
  %25 = mul nsw i32 %24, 2
  %26 = call ptr @cli_event_get_name(ptr noundef %23, i32 noundef %25)
  store ptr %26, ptr %9, align 8
  %27 = load ptr, ptr @g_sigevents, align 8
  %28 = load i32, ptr %3, align 4
  %29 = mul nsw i32 %28, 2
  call void @cli_event_get(ptr noundef %27, i32 noundef %29, ptr noundef %7, ptr noundef %8)
  %30 = load i32, ptr %8, align 4
  %31 = icmp ne i32 %30, 0
  br i1 %31, label %38, label %32

32:                                               ; preds = %22
  %33 = load ptr, ptr %9, align 8
  %34 = icmp ne ptr %33, null
  br i1 %34, label %35, label %37

35:                                               ; preds = %32
  %36 = load ptr, ptr %9, align 8
  call void (ptr, ...) @cli_dbgmsg(ptr noundef @.str.8, ptr noundef %36)
  br label %37

37:                                               ; preds = %35, %32
  br label %81

38:                                               ; preds = %22
  %39 = load ptr, ptr %9, align 8
  %40 = icmp ne ptr %39, null
  br i1 %40, label %41, label %45

41:                                               ; preds = %38
  %42 = load ptr, ptr %9, align 8
  %43 = call i64 @strlen(ptr noundef %42) #12
  %44 = trunc i64 %43 to i32
  store i32 %44, ptr %6, align 4
  br label %46

45:                                               ; preds = %38
  store i32 0, ptr %6, align 4
  br label %46

46:                                               ; preds = %45, %41
  %47 = load i32, ptr %6, align 4
  %48 = load i32, ptr %5, align 4
  %49 = icmp sgt i32 %47, %48
  br i1 %49, label %50, label %52

50:                                               ; preds = %46
  %51 = load i32, ptr %6, align 4
  store i32 %51, ptr %5, align 4
  br label %52

52:                                               ; preds = %50, %46
  %53 = load ptr, ptr %9, align 8
  %54 = icmp ne ptr %53, null
  br i1 %54, label %55, label %57

55:                                               ; preds = %52
  %56 = load ptr, ptr %9, align 8
  br label %58

57:                                               ; preds = %52
  br label %58

58:                                               ; preds = %57, %55
  %59 = phi ptr [ %56, %55 ], [ @.str.9, %57 ]
  %60 = load ptr, ptr %2, align 8
  %61 = getelementptr inbounds %struct.sigperf_elem, ptr %60, i32 0, i32 0
  store ptr %59, ptr %61, align 8
  %62 = load i64, ptr %7, align 8
  %63 = load ptr, ptr %2, align 8
  %64 = getelementptr inbounds %struct.sigperf_elem, ptr %63, i32 0, i32 1
  store i64 %62, ptr %64, align 8
  %65 = load i32, ptr %8, align 4
  %66 = zext i32 %65 to i64
  %67 = load ptr, ptr %2, align 8
  %68 = getelementptr inbounds %struct.sigperf_elem, ptr %67, i32 0, i32 2
  store i64 %66, ptr %68, align 8
  %69 = load ptr, ptr @g_sigevents, align 8
  %70 = load i32, ptr %3, align 4
  %71 = mul nsw i32 %70, 2
  %72 = add nsw i32 %71, 1
  call void @cli_event_get(ptr noundef %69, i32 noundef %72, ptr noundef %7, ptr noundef %8)
  %73 = load i32, ptr %8, align 4
  %74 = zext i32 %73 to i64
  %75 = load ptr, ptr %2, align 8
  %76 = getelementptr inbounds %struct.sigperf_elem, ptr %75, i32 0, i32 3
  store i64 %74, ptr %76, align 8
  %77 = load ptr, ptr %2, align 8
  %78 = getelementptr inbounds %struct.sigperf_elem, ptr %77, i32 1
  store ptr %78, ptr %2, align 8
  %79 = load i32, ptr %4, align 4
  %80 = add nsw i32 %79, 1
  store i32 %80, ptr %4, align 4
  br label %81

81:                                               ; preds = %58, %37
  %82 = load i32, ptr %3, align 4
  %83 = add nsw i32 %82, 1
  store i32 %83, ptr %3, align 4
  br label %19

84:                                               ; preds = %19
  %85 = load i32, ptr %5, align 4
  %86 = icmp slt i32 %85, 13
  br i1 %86, label %87, label %88

87:                                               ; preds = %84
  store i32 13, ptr %5, align 4
  br label %88

88:                                               ; preds = %87, %84
  %89 = getelementptr inbounds [64 x %struct.sigperf_elem], ptr %1, i64 0, i64 0
  %90 = load i32, ptr %4, align 4
  %91 = sext i32 %90 to i64
  call void @cli_qsort(ptr noundef %89, i64 noundef %91, i64 noundef 32, ptr noundef @sigelem_comp)
  %92 = getelementptr inbounds [64 x %struct.sigperf_elem], ptr %1, i64 0, i64 0
  store ptr %92, ptr %2, align 8
  %93 = load i32, ptr %5, align 4
  call void (ptr, ptr, ...) @cli_infomsg(ptr noundef null, ptr noundef @.str.10, i32 noundef %93, ptr noundef @.str.11, i32 noundef 8, ptr noundef @.str.12, i32 noundef 8, ptr noundef @.str.13, i32 noundef 12, ptr noundef @.str.14, i32 noundef 9, ptr noundef @.str.15)
  %94 = load i32, ptr %5, align 4
  call void (ptr, ptr, ...) @cli_infomsg(ptr noundef null, ptr noundef @.str.10, i32 noundef %94, ptr noundef @.str.16, i32 noundef 8, ptr noundef @.str.17, i32 noundef 8, ptr noundef @.str.18, i32 noundef 12, ptr noundef @.str.19, i32 noundef 9, ptr noundef @.str.20)
  br label %95

95:                                               ; preds = %100, %88
  %96 = load ptr, ptr %2, align 8
  %97 = getelementptr inbounds %struct.sigperf_elem, ptr %96, i32 0, i32 2
  %98 = load i64, ptr %97, align 8
  %99 = icmp ne i64 %98, 0
  br i1 %99, label %100, label %125

100:                                              ; preds = %95
  %101 = load i32, ptr %5, align 4
  %102 = load ptr, ptr %2, align 8
  %103 = getelementptr inbounds %struct.sigperf_elem, ptr %102, i32 0, i32 0
  %104 = load ptr, ptr %103, align 8
  %105 = load ptr, ptr %2, align 8
  %106 = getelementptr inbounds %struct.sigperf_elem, ptr %105, i32 0, i32 2
  %107 = load i64, ptr %106, align 8
  %108 = load ptr, ptr %2, align 8
  %109 = getelementptr inbounds %struct.sigperf_elem, ptr %108, i32 0, i32 3
  %110 = load i64, ptr %109, align 8
  %111 = load ptr, ptr %2, align 8
  %112 = getelementptr inbounds %struct.sigperf_elem, ptr %111, i32 0, i32 1
  %113 = load i64, ptr %112, align 8
  %114 = load ptr, ptr %2, align 8
  %115 = getelementptr inbounds %struct.sigperf_elem, ptr %114, i32 0, i32 1
  %116 = load i64, ptr %115, align 8
  %117 = uitofp i64 %116 to double
  %118 = load ptr, ptr %2, align 8
  %119 = getelementptr inbounds %struct.sigperf_elem, ptr %118, i32 0, i32 2
  %120 = load i64, ptr %119, align 8
  %121 = uitofp i64 %120 to double
  %122 = fdiv double %117, %121
  call void (ptr, ptr, ...) @cli_infomsg(ptr noundef null, ptr noundef @.str.21, i32 noundef %101, ptr noundef %104, i32 noundef 8, i64 noundef %107, i32 noundef 8, i64 noundef %110, i32 noundef 12, i64 noundef %113, i32 noundef 9, double noundef %122)
  %123 = load ptr, ptr %2, align 8
  %124 = getelementptr inbounds %struct.sigperf_elem, ptr %123, i32 1
  store ptr %124, ptr %2, align 8
  br label %95

125:                                              ; preds = %95, %16
  ret void
}