; Function Attrs: nounwind uwtable
define void @cli_sigperf_print() local_unnamed_addr #0 {
  %1 = alloca [64 x %struct.sigperf_elem], align 16
  %2 = alloca %union.ev_val, align 8
  %3 = alloca i32, align 4
  %4 = load i32, ptr @g_sigid, align 4
  %5 = icmp ne i32 %4, 0
  %6 = load ptr, ptr @g_sigevents, align 8
  %7 = icmp ne ptr %6, null
  %or.cond = select i1 %5, i1 %7, i1 false
  br i1 %or.cond, label %9, label %8

8:                                                ; preds = %0
  tail call void (ptr, ...) @cli_warnmsg(ptr noundef nonnull @.str.7) #25
  br label %.loopexit

9:                                                ; preds = %0
  call void @llvm.memset.p0.i64(ptr noundef nonnull align 16 dereferenceable(2048) %1, i8 0, i64 2048, i1 false)
  br label %10

10:                                               ; preds = %9, %35
  %.049 = phi ptr [ %1, %9 ], [ %.1, %35 ]
  %.03448 = phi i32 [ 0, %9 ], [ %.236, %35 ]
  %.03747 = phi i32 [ 0, %9 ], [ %.138, %35 ]
  %.03946 = phi i32 [ 0, %9 ], [ %36, %35 ]
  %11 = load ptr, ptr @g_sigevents, align 8
  %12 = shl nuw nsw i32 %.03946, 1
  %13 = call ptr @cli_event_get_name(ptr noundef %11, i32 noundef %12) #25
  %14 = load ptr, ptr @g_sigevents, align 8
  call void @cli_event_get(ptr noundef %14, i32 noundef %12, ptr noundef nonnull %2, ptr noundef nonnull %3) #25
  %15 = load i32, ptr %3, align 4
  %.not43 = icmp eq i32 %15, 0
  %.not44 = icmp eq ptr %13, null
  br i1 %.not43, label %16, label %18

16:                                               ; preds = %10
  br i1 %.not44, label %35, label %17

17:                                               ; preds = %16
  call void (ptr, ...) @cli_dbgmsg(ptr noundef nonnull @.str.8, ptr noundef nonnull %13) #25
  br label %35

18:                                               ; preds = %10
  br i1 %.not44, label %22, label %19

19:                                               ; preds = %18
  %20 = call i64 @strlen(ptr noundef nonnull dereferenceable(1) %13) #27
  %21 = trunc i64 %20 to i32
  br label %22

22:                                               ; preds = %18, %19
  %23 = phi ptr [ %13, %19 ], [ @.str.9, %18 ]
  %.033 = phi i32 [ %21, %19 ], [ 0, %18 ]
  %spec.select = call i32 @llvm.smax.i32(i32 %.033, i32 %.03448)
  store ptr %23, ptr %.049, align 8
  %24 = load i64, ptr %2, align 8
  %25 = getelementptr inbounds i8, ptr %.049, i64 8
  store i64 %24, ptr %25, align 8
  %26 = zext i32 %15 to i64
  %27 = getelementptr inbounds i8, ptr %.049, i64 16
  store i64 %26, ptr %27, align 8
  %28 = load ptr, ptr @g_sigevents, align 8
  %29 = or disjoint i32 %12, 1
  call void @cli_event_get(ptr noundef %28, i32 noundef %29, ptr noundef nonnull %2, ptr noundef nonnull %3) #25
  %30 = load i32, ptr %3, align 4
  %31 = zext i32 %30 to i64
  %32 = getelementptr inbounds i8, ptr %.049, i64 24
  store i64 %31, ptr %32, align 8
  %33 = getelementptr inbounds i8, ptr %.049, i64 32
  %34 = add nsw i32 %.03747, 1
  br label %35

35:                                               ; preds = %16, %17, %22
  %.138 = phi i32 [ %34, %22 ], [ %.03747, %17 ], [ %.03747, %16 ]
  %.236 = phi i32 [ %spec.select, %22 ], [ %.03448, %17 ], [ %.03448, %16 ]
  %.1 = phi ptr [ %33, %22 ], [ %.049, %17 ], [ %.049, %16 ]
  %36 = add nuw nsw i32 %.03946, 1
  %exitcond.not = icmp eq i32 %36, 64
  br i1 %exitcond.not, label %37, label %10

37:                                               ; preds = %35
  %spec.store.select = call i32 @llvm.smax.i32(i32 %.236, i32 13)
  %38 = sext i32 %.138 to i64
  call void @cli_qsort(ptr noundef nonnull %1, i64 noundef %38, i64 noundef 32, ptr noundef nonnull @sigelem_comp) #25
  call void (ptr, ptr, ...) @cli_infomsg(ptr noundef null, ptr noundef nonnull @.str.10, i32 noundef %spec.store.select, ptr noundef nonnull @.str.11, i32 noundef 8, ptr noundef nonnull @.str.12, i32 noundef 8, ptr noundef nonnull @.str.13, i32 noundef 12, ptr noundef nonnull @.str.14, i32 noundef 9, ptr noundef nonnull @.str.15) #25
  call void (ptr, ptr, ...) @cli_infomsg(ptr noundef null, ptr noundef nonnull @.str.10, i32 noundef %spec.store.select, ptr noundef nonnull @.str.16, i32 noundef 8, ptr noundef nonnull @.str.17, i32 noundef 8, ptr noundef nonnull @.str.18, i32 noundef 12, ptr noundef nonnull @.str.19, i32 noundef 9, ptr noundef nonnull @.str.20) #25
  %39 = getelementptr inbounds i8, ptr %1, i64 16
  %40 = load i64, ptr %39, align 16
  %.not50 = icmp eq i64 %40, 0
  br i1 %.not50, label %.loopexit, label %.lr.ph

.lr.ph:                                           ; preds = %37, %.lr.ph
  %41 = phi i64 [ %52, %.lr.ph ], [ %40, %37 ]
  %.251 = phi ptr [ %50, %.lr.ph ], [ %1, %37 ]
  %42 = load ptr, ptr %.251, align 8
  %43 = getelementptr inbounds i8, ptr %.251, i64 24
  %44 = load i64, ptr %43, align 8
  %45 = getelementptr inbounds i8, ptr %.251, i64 8
  %46 = load i64, ptr %45, align 8
  %47 = uitofp i64 %46 to double
  %48 = uitofp i64 %41 to double
  %49 = fdiv double %47, %48
  call void (ptr, ptr, ...) @cli_infomsg(ptr noundef null, ptr noundef nonnull @.str.21, i32 noundef %spec.store.select, ptr noundef %42, i32 noundef 8, i64 noundef %41, i32 noundef 8, i64 noundef %44, i32 noundef 12, i64 noundef %46, i32 noundef 9, double noundef %49) #25
  %50 = getelementptr inbounds i8, ptr %.251, i64 32
  %51 = getelementptr inbounds i8, ptr %.251, i64 48
  %52 = load i64, ptr %51, align 8
  %.not = icmp eq i64 %52, 0
  br i1 %.not, label %.loopexit, label %.lr.ph

.loopexit:                                        ; preds = %.lr.ph, %37, %8
  ret void
}